Certificate:
    Data:
        Version: 3 (0x2)
        Serial Number: 4 (0x4)
        Signature Algorithm: sha1WithRSAEncryption
        Issuer: C=GB, ST=Berkshire, L=Newbury, O=uangel, CN=uangel
        Validity
            Not Before: Aug 19 04:47:18 2011 GMT
            Not After : Aug 18 04:47:18 2012 GMT
        Subject: C=GB, ST=Berkshire, L=Newbury, O=uangel, CN=uangel
        Subject Public Key Info:
            Public Key Algorithm: rsaEncryption
            RSA Public Key: (1024 bit)
                Modulus (1024 bit):
                    00:a7:ed:d7:26:f3:89:ba:f9:e4:cd:b8:f2:37:9a:
                    21:cb:2c:8d:fb:96:15:07:f3:43:12:77:91:79:41:
                    8d:f8:36:b3:fa:33:08:9a:8a:66:e9:c6:61:ef:8b:
                    eb:54:ff:f5:20:78:91:bc:77:25:89:78:a2:03:8b:
                    9c:ff:6c:62:6e:e6:9c:33:ec:02:a7:23:be:c7:16:
                    55:e2:a3:27:7d:6b:ab:54:da:ea:16:6e:4e:85:32:
                    37:c3:41:48:3e:88:9a:91:cd:14:4b:a4:97:37:19:
                    7a:f9:fe:cf:5f:a7:4d:6a:b7:67:9f:53:fb:09:a3:
                    a3:4d:58:5c:d7:11:8d:17:c3
                Exponent: 65537 (0x10001)
        X509v3 extensions:
            X509v3 Basic Constraints: 
                CA:FALSE
            Netscape Comment: 
                OpenSSL Generated Certificate
            X509v3 Subject Key Identifier: 
                95:5F:05:D4:22:29:EB:E6:D5:31:83:47:65:BF:17:78:A9:A4:87:F3
            X509v3 Authority Key Identifier: 
                keyid:77:7D:CD:E4:58:EB:89:1E:61:6B:CD:6B:6C:FA:F0:C0:FB:06:7B:2C

    Signature Algorithm: sha1WithRSAEncryption
        b6:6f:e1:59:08:e5:a0:90:fe:b3:cb:c5:4f:76:c1:97:13:85:
        5f:fe:db:2a:6e:3e:3d:50:eb:93:05:51:60:09:6d:fc:c1:00:
        5b:cb:1a:8d:29:07:a7:05:b0:27:fb:a0:2a:5e:a5:46:7e:b9:
        63:94:0d:b5:7c:54:2f:0d:2b:e5:2c:c3:be:5a:3f:78:a4:a6:
        c9:3a:79:7f:47:71:d3:07:09:aa:59:2e:96:07:07:88:dd:78:
        d1:e0:40:ae:e1:47:60:c6:eb:b0:e1:82:1e:49:c4:84:1d:e2:
        77:27:d5:7f:21:67:51:c9:e0:43:64:3b:c3:07:d1:c9:db:88:
        30:f7
-----BEGIN CERTIFICATE-----
MIICmzCCAgSgAwIBAgIBBDANBgkqhkiG9w0BAQUFADBVMQswCQYDVQQGEwJHQjES
MBAGA1UECBMJQmVya3NoaXJlMRAwDgYDVQQHEwdOZXdidXJ5MQ8wDQYDVQQKEwZ1
YW5nZWwxDzANBgNVBAMTBnVhbmdlbDAeFw0xMTA4MTkwNDQ3MThaFw0xMjA4MTgw
NDQ3MThaMFUxCzAJBgNVBAYTAkdCMRIwEAYDVQQIEwlCZXJrc2hpcmUxEDAOBgNV
BAcTB05ld2J1cnkxDzANBgNVBAoTBnVhbmdlbDEPMA0GA1UEAxMGdWFuZ2VsMIGf
MA0GCSqGSIb3DQEBAQUAA4GNADCBiQKBgQCn7dcm84m6+eTNuPI3miHLLI37lhUH
80MSd5F5QY34NrP6MwiaimbpxmHvi+tU//UgeJG8dyWJeKIDi5z/bGJu5pwz7AKn
I77HFlXioyd9a6tU2uoWbk6FMjfDQUg+iJqRzRRLpJc3GXr5/s9fp01qt2efU/sJ
o6NNWFzXEY0XwwIDAQABo3sweTAJBgNVHRMEAjAAMCwGCWCGSAGG+EIBDQQfFh1P
cGVuU1NMIEdlbmVyYXRlZCBDZXJ0aWZpY2F0ZTAdBgNVHQ4EFgQUlV8F1CIp6+bV
MYNHZb8XeKmkh/MwHwYDVR0jBBgwFoAUd33N5FjriR5ha81rbPrwwPsGeywwDQYJ
KoZIhvcNAQEFBQADgYEAtm/hWQjloJD+s8vFT3bBlxOFX/7bKm4+PVDrkwVRYAlt
/MEAW8sajSkHpwWwJ/ugKl6lRn65Y5QNtXxULw0r5SzDvlo/eKSmyTp5f0dx0wcJ
qlkulgcHiN140eBAruFHYMbrsOGCHknEhB3idyfVfyFnUcngQ2Q7wwfRyduIMPc=
-----END CERTIFICATE-----
