Certificate:
    Data:
        Version: 3 (0x2)
        Serial Number: 3 (0x3)
        Signature Algorithm: sha1WithRSAEncryption
        Issuer: C=GB, ST=Berkshire, L=Newbury, O=uangel, CN=uangel
        Validity
            Not Before: Aug 19 04:46:10 2011 GMT
            Not After : Aug 18 04:46:10 2012 GMT
        Subject: C=GB, ST=Berkshire, L=Newbury, O=uangel, CN=uangel
        Subject Public Key Info:
            Public Key Algorithm: rsaEncryption
            RSA Public Key: (1024 bit)
                Modulus (1024 bit):
                    00:d8:6d:62:9a:d0:f6:b2:8a:90:36:07:e0:ea:f3:
                    2b:db:15:30:bc:f1:c3:f0:82:07:98:c5:5b:e7:de:
                    79:ff:cf:01:9f:51:a6:2d:ee:37:0d:a6:e9:ec:fe:
                    6d:fc:24:85:cf:4f:ff:c4:19:e8:b0:11:b5:f1:91:
                    d9:24:e9:bb:ef:e3:c2:61:bb:39:a5:1a:70:fe:a5:
                    9e:6c:12:55:86:41:6f:cf:21:1a:4a:04:0d:cf:cb:
                    3b:59:29:0d:a2:87:e4:5d:33:1d:9c:43:4e:80:51:
                    64:6e:81:65:5a:14:63:d7:aa:b4:f3:fb:f4:31:85:
                    e0:8b:a4:83:57:0f:4f:58:15
                Exponent: 65537 (0x10001)
        X509v3 extensions:
            X509v3 Basic Constraints: 
                CA:FALSE
            Netscape Comment: 
                OpenSSL Generated Certificate
            X509v3 Subject Key Identifier: 
                AF:3D:E7:E6:D3:B7:AE:8C:CD:62:68:B2:8F:2F:26:46:3B:A8:74:83
            X509v3 Authority Key Identifier: 
                keyid:77:7D:CD:E4:58:EB:89:1E:61:6B:CD:6B:6C:FA:F0:C0:FB:06:7B:2C

    Signature Algorithm: sha1WithRSAEncryption
        12:e1:88:73:4c:b6:3c:50:13:bb:f9:97:ba:74:ae:b0:c9:51:
        59:1d:c8:b8:25:6b:4b:02:21:a4:09:c7:6d:01:76:9c:e1:2d:
        ba:b2:1f:36:80:ba:04:77:89:cc:69:83:b4:63:c1:e5:65:e0:
        1d:dc:7f:87:ae:ef:e4:c0:49:8d:40:ec:c1:ec:25:71:46:e8:
        89:e8:21:21:c7:80:d0:62:79:31:59:87:7a:14:42:73:77:a9:
        02:ae:c2:3b:b1:47:cc:c4:8d:12:d6:33:a5:28:45:c8:16:55:
        5c:89:ca:b4:a2:59:f5:29:d9:97:d6:06:6a:8c:46:59:cb:7d:
        79:c4
-----BEGIN CERTIFICATE-----
MIICmzCCAgSgAwIBAgIBAzANBgkqhkiG9w0BAQUFADBVMQswCQYDVQQGEwJHQjES
MBAGA1UECBMJQmVya3NoaXJlMRAwDgYDVQQHEwdOZXdidXJ5MQ8wDQYDVQQKEwZ1
YW5nZWwxDzANBgNVBAMTBnVhbmdlbDAeFw0xMTA4MTkwNDQ2MTBaFw0xMjA4MTgw
NDQ2MTBaMFUxCzAJBgNVBAYTAkdCMRIwEAYDVQQIEwlCZXJrc2hpcmUxEDAOBgNV
BAcTB05ld2J1cnkxDzANBgNVBAoTBnVhbmdlbDEPMA0GA1UEAxMGdWFuZ2VsMIGf
MA0GCSqGSIb3DQEBAQUAA4GNADCBiQKBgQDYbWKa0PayipA2B+Dq8yvbFTC88cPw
ggeYxVvn3nn/zwGfUaYt7jcNpuns/m38JIXPT//EGeiwEbXxkdkk6bvv48Jhuzml
GnD+pZ5sElWGQW/PIRpKBA3PyztZKQ2ih+RdMx2cQ06AUWRugWVaFGPXqrTz+/Qx
heCLpINXD09YFQIDAQABo3sweTAJBgNVHRMEAjAAMCwGCWCGSAGG+EIBDQQfFh1P
cGVuU1NMIEdlbmVyYXRlZCBDZXJ0aWZpY2F0ZTAdBgNVHQ4EFgQUrz3n5tO3rozN
Ymiyjy8mRjuodIMwHwYDVR0jBBgwFoAUd33N5FjriR5ha81rbPrwwPsGeywwDQYJ
KoZIhvcNAQEFBQADgYEAEuGIc0y2PFATu/mXunSusMlRWR3IuCVrSwIhpAnHbQF2
nOEturIfNoC6BHeJzGmDtGPB5WXgHdx/h67v5MBJjUDswewlcUboieghIceA0GJ5
MVmHehRCc3epAq7CO7FHzMSNEtYzpShFyBZVXInKtKJZ9SnZl9YGaoxGWct9ecQ=
-----END CERTIFICATE-----
